target datalayout = "e-m:e-p270:32:32-p271:32:32-p272:64:64-i64:64-i128:128-f80:128-n8:16:32:64-S128"
target triple = "x86_64-pc-linux-gnu"

%struct.PyModuleDef = type { %struct.PyModuleDef_Base, ptr, ptr, i64, ptr, ptr, ptr, ptr, ptr }
%struct.PyModuleDef_Base = type { %struct._object, ptr, i64, ptr }
%struct._object = type { i64, ptr }

@_ZN12_GLOBAL__N_19moduledefE = internal global %struct.PyModuleDef { %struct.PyModuleDef_Base { %struct._object { i64 1, ptr null }, ptr null, i64 0, ptr null }, ptr @_ZN12_GLOBAL__N_111kModuleNameE, ptr null, i64 0, ptr null, ptr null, ptr null, ptr null, ptr null }, align 8
@.str = private unnamed_addr constant [21 x i8] c"gil_acquire_funcaddr\00", align 1
@.str.1 = private unnamed_addr constant [35 x i8] c"gil_multi_acquire_release_funcaddr\00", align 1
@.str.2 = private unnamed_addr constant [34 x i8] c"gil_acquire_inner_custom_funcaddr\00", align 1
@.str.3 = private unnamed_addr constant [35 x i8] c"gil_acquire_nested_custom_funcaddr\00", align 1
@.str.4 = private unnamed_addr constant [36 x i8] c"gil_acquire_inner_pybind11_funcaddr\00", align 1
@.str.5 = private unnamed_addr constant [37 x i8] c"gil_acquire_nested_pybind11_funcaddr\00", align 1

; Function Attrs: mustprogress uwtable
define ptr @PyInit_cross_module_gil_utils() #4 {
  %1 = alloca ptr, align 8
  call void @llvm.lifetime.start.p0(i64 8, ptr %1) #23
  %2 = call ptr @PyModule_Create2(ptr noundef @_ZN12_GLOBAL__N_19moduledefE, i32 noundef 1013)
  store ptr %2, ptr %1, align 8, !tbaa !82
  %3 = load ptr, ptr %1, align 8, !tbaa !82
  %4 = icmp ne ptr %3, null
  br i1 %4, label %5, label %24

5:                                                ; preds = %0
  %6 = load ptr, ptr %1, align 8, !tbaa !82
  %7 = call ptr @PyLong_FromVoidPtr(ptr noundef @_ZN12_GLOBAL__N_111gil_acquireEv)
  %8 = call i32 @PyModule_AddObject(ptr noundef %6, ptr noundef @.str, ptr noundef %7)
  %9 = load ptr, ptr %1, align 8, !tbaa !82
  %10 = call ptr @PyLong_FromVoidPtr(ptr noundef @_ZN12_GLOBAL__N_125gil_multi_acquire_releaseB5cxx11Ej)
  %11 = call i32 @PyModule_AddObject(ptr noundef %9, ptr noundef @.str.1, ptr noundef %10)
  %12 = load ptr, ptr %1, align 8, !tbaa !82
  %13 = call ptr @PyLong_FromVoidPtr(ptr noundef @_ZN12_GLOBAL__N_117gil_acquire_innerINS_13CustomAutoGILENS_15CustomAutoNoGILEEEvv)
  %14 = call i32 @PyModule_AddObject(ptr noundef %12, ptr noundef @.str.2, ptr noundef %13)
  %15 = load ptr, ptr %1, align 8, !tbaa !82
  %16 = call ptr @PyLong_FromVoidPtr(ptr noundef @_ZN12_GLOBAL__N_118gil_acquire_nestedINS_13CustomAutoGILENS_15CustomAutoNoGILEEEvv)
  %17 = call i32 @PyModule_AddObject(ptr noundef %15, ptr noundef @.str.3, ptr noundef %16)
  %18 = load ptr, ptr %1, align 8, !tbaa !82
  %19 = call ptr @PyLong_FromVoidPtr(ptr noundef @_ZN12_GLOBAL__N_117gil_acquire_innerIN8pybind1118gil_scoped_acquireENS1_18gil_scoped_releaseEEEvv)
  %20 = call i32 @PyModule_AddObject(ptr noundef %18, ptr noundef @.str.4, ptr noundef %19)
  %21 = load ptr, ptr %1, align 8, !tbaa !82
  %22 = call ptr @PyLong_FromVoidPtr(ptr noundef @_ZN12_GLOBAL__N_118gil_acquire_nestedIN8pybind1118gil_scoped_acquireENS1_18gil_scoped_releaseEEEvv)
  %23 = call i32 @PyModule_AddObject(ptr noundef %21, ptr noundef @.str.5, ptr noundef %22)
  br label %24

24:                                               ; preds = %5, %0
  %25 = load ptr, ptr %1, align 8, !tbaa !82
  call void @llvm.lifetime.end.p0(i64 8, ptr %1) #23
  ret ptr %25
}