; Function Attrs: mustprogress uwtable
define ptr @PyInit_cross_module_gil_utils() local_unnamed_addr #5 {
  %1 = tail call ptr @PyModule_Create2(ptr noundef nonnull @_ZN12_GLOBAL__N_19moduledefE, i32 noundef 1013)
  %.not = icmp eq ptr %1, null
  br i1 %.not, label %15, label %2

2:                                                ; preds = %0
  %3 = tail call ptr @PyLong_FromVoidPtr(ptr noundef nonnull @_ZN12_GLOBAL__N_111gil_acquireEv)
  %4 = tail call i32 @PyModule_AddObject(ptr noundef nonnull %1, ptr noundef nonnull @.str, ptr noundef %3)
  %5 = tail call ptr @PyLong_FromVoidPtr(ptr noundef nonnull @_ZN12_GLOBAL__N_125gil_multi_acquire_releaseB5cxx11Ej)
  %6 = tail call i32 @PyModule_AddObject(ptr noundef nonnull %1, ptr noundef nonnull @.str.1, ptr noundef %5)
  %7 = tail call ptr @PyLong_FromVoidPtr(ptr noundef nonnull @_ZN12_GLOBAL__N_117gil_acquire_innerINS_13CustomAutoGILENS_15CustomAutoNoGILEEEvv)
  %8 = tail call i32 @PyModule_AddObject(ptr noundef nonnull %1, ptr noundef nonnull @.str.2, ptr noundef %7)
  %9 = tail call ptr @PyLong_FromVoidPtr(ptr noundef nonnull @_ZN12_GLOBAL__N_118gil_acquire_nestedINS_13CustomAutoGILENS_15CustomAutoNoGILEEEvv)
  %10 = tail call i32 @PyModule_AddObject(ptr noundef nonnull %1, ptr noundef nonnull @.str.3, ptr noundef %9)
  %11 = tail call ptr @PyLong_FromVoidPtr(ptr noundef nonnull @_ZN12_GLOBAL__N_117gil_acquire_innerIN8pybind1118gil_scoped_acquireENS1_18gil_scoped_releaseEEEvv)
  %12 = tail call i32 @PyModule_AddObject(ptr noundef nonnull %1, ptr noundef nonnull @.str.4, ptr noundef %11)
  %13 = tail call ptr @PyLong_FromVoidPtr(ptr noundef nonnull @_ZN12_GLOBAL__N_118gil_acquire_nestedIN8pybind1118gil_scoped_acquireENS1_18gil_scoped_releaseEEEvv)
  %14 = tail call i32 @PyModule_AddObject(ptr noundef nonnull %1, ptr noundef nonnull @.str.5, ptr noundef %13)
  br label %15

15:                                               ; preds = %2, %0
  ret ptr %1
}